target datalayout = "e-m:e-p270:32:32-p271:32:32-p272:64:64-i64:64-i128:128-f80:128-n8:16:32:64-S128"
target triple = "x86_64-unknown-linux-gnu"

%"class.grpc_core::RefCountedPtr" = type { ptr }
%"class.std::basic_string_view" = type { i64, ptr }
%"class.grpc_core::PolymorphicRefCount" = type { ptr }
%"class.grpc_core::RefCount" = type { %"struct.std::atomic" }
%"struct.std::atomic" = type { %"struct.std::__atomic_base" }
%"struct.std::__atomic_base" = type { i64 }
%"class.grpc_core::(anonymous namespace)::grpc_httpcli_ssl_channel_security_connector" = type { %class.grpc_channel_security_connector, ptr, ptr }
%class.grpc_channel_security_connector = type { %class.grpc_security_connector, %"class.grpc_core::RefCountedPtr", %"class.grpc_core::RefCountedPtr.1", %"class.std::unique_ptr" }
%class.grpc_security_connector = type { %"class.grpc_core::RefCounted.6", %"class.std::basic_string_view" }
%"class.grpc_core::RefCounted.6" = type { %"class.grpc_core::PolymorphicRefCount", %"class.grpc_core::RefCount" }
%"class.grpc_core::RefCountedPtr.1" = type { ptr }
%"class.std::unique_ptr" = type { %"struct.std::__uniq_ptr_data" }
%"struct.std::__uniq_ptr_data" = type { %"class.std::__uniq_ptr_impl" }
%"class.std::__uniq_ptr_impl" = type { %"class.std::tuple" }
%"class.std::tuple" = type { %"struct.std::_Tuple_impl" }
%"struct.std::_Tuple_impl" = type { %"struct.std::_Head_base.8" }
%"struct.std::_Head_base.8" = type { ptr }

; Function Attrs: mustprogress nounwind uwtable
define internal noundef i32 @_ZNK9grpc_core12_GLOBAL__N_143grpc_httpcli_ssl_channel_security_connector3cmpEPK23grpc_security_connector(ptr noundef nonnull align 8 dereferenceable(72) %this, ptr noundef %other_sc) unnamed_addr #8 align 2 {
entry:
  %this.addr = alloca ptr, align 8
  %other_sc.addr = alloca ptr, align 8
  %other = alloca ptr, align 8
  store ptr %this, ptr %this.addr, align 8
  store ptr %other_sc, ptr %other_sc.addr, align 8
  %this1 = load ptr, ptr %this.addr, align 8
  %0 = load ptr, ptr %other_sc.addr, align 8
  store ptr %0, ptr %other, align 8
  %secure_peer_name_ = getelementptr inbounds %"class.grpc_core::(anonymous namespace)::grpc_httpcli_ssl_channel_security_connector", ptr %this1, i32 0, i32 2
  %1 = load ptr, ptr %secure_peer_name_, align 8
  %2 = load ptr, ptr %other, align 8
  %secure_peer_name_2 = getelementptr inbounds %"class.grpc_core::(anonymous namespace)::grpc_httpcli_ssl_channel_security_connector", ptr %2, i32 0, i32 2
  %3 = load ptr, ptr %secure_peer_name_2, align 8
  %call = call i32 @strcmp(ptr noundef %1, ptr noundef %3) #19
  ret i32 %call
}