; Function Attrs: mustprogress nofree nounwind willreturn memory(read, inaccessiblemem: none) uwtable
define internal noundef i32 @_ZNK9grpc_core12_GLOBAL__N_143grpc_httpcli_ssl_channel_security_connector3cmpEPK23grpc_security_connector(ptr nocapture noundef nonnull readonly align 8 dereferenceable(72) %this, ptr nocapture noundef readonly %other_sc) unnamed_addr #14 align 2 {
entry:
  %secure_peer_name_ = getelementptr inbounds i8, ptr %this, i64 64
  %0 = load ptr, ptr %secure_peer_name_, align 8
  %secure_peer_name_2 = getelementptr inbounds i8, ptr %other_sc, i64 64
  %1 = load ptr, ptr %secure_peer_name_2, align 8
  %call = tail call i32 @strcmp(ptr noundef nonnull dereferenceable(1) %0, ptr noundef nonnull dereferenceable(1) %1) #24
  ret i32 %call
}